target datalayout = "e-m:e-p270:32:32-p271:32:32-p272:64:64-i64:64-i128:128-f80:128-n8:16:32:64-S128"
target triple = "x86_64-pc-linux-gnu"

%"class.icu_77::UnicodeString" = type { %"class.icu_77::Replaceable", %"union.icu_77::UnicodeString::StackBufferOrFields" }
%"class.icu_77::Replaceable" = type { %"class.icu_77::UObject" }
%"class.icu_77::UObject" = type { ptr }
%"union.icu_77::UnicodeString::StackBufferOrFields" = type { %struct.anon.0, [32 x i8] }
%struct.anon.0 = type { i16, i32, i32, ptr }
%"class.icu_77::RuleBasedNumberFormat" = type { %"class.icu_77::NumberFormat.base", ptr, ptr, i32, ptr, %"class.icu_77::Locale", ptr, ptr, ptr, ptr, i32, i8, ptr, ptr, %"class.icu_77::UnicodeString", i8, i8, i8, ptr }
%"class.icu_77::NumberFormat.base" = type <{ %"class.icu_77::Format", i8, [3 x i8], i32, i32, i32, i32, i8, i8, [4 x i16], [2 x i8], i32 }>
%"class.icu_77::Format" = type { %"class.icu_77::UObject", ptr, ptr }
%"class.icu_77::Locale" = type <{ %"class.icu_77::UObject", [12 x i8], [6 x i8], [4 x i8], [2 x i8], i32, [4 x i8], ptr, [157 x i8], [3 x i8], ptr, i8, [7 x i8] }>
%struct.anon = type { i16, [27 x i16] }

@_ZTVN6icu_777UObjectE = available_externally unnamed_addr constant { [5 x ptr] } { [5 x ptr] [ptr null, ptr @_ZTIN6icu_777UObjectE, ptr @_ZN6icu_777UObjectD1Ev, ptr @_ZN6icu_777UObjectD0Ev, ptr @_ZNK6icu_777UObject17getDynamicClassIDEv] }, align 8

; Function Attrs: inlinehint mustprogress nounwind uwtable
define linkonce_odr void @_ZN6icu_777UObjectC2Ev(ptr noundef nonnull align 8 dereferenceable(8) %0) unnamed_addr #4 comdat align 2 {
  %2 = alloca ptr, align 8
  store ptr %0, ptr %2, align 8, !tbaa !225
  %3 = load ptr, ptr %2, align 8
  store ptr getelementptr inbounds inrange(-16, 24) ({ [5 x ptr] }, ptr @_ZTVN6icu_777UObjectE, i32 0, i32 0, i32 2), ptr %3, align 8, !tbaa !10
  ret void
}

; Function Attrs: inlinehint mustprogress nounwind uwtable
define linkonce_odr void @_ZN6icu_7711ReplaceableC2Ev(ptr noundef nonnull align 8 dereferenceable(8) %0) unnamed_addr #4 comdat align 2 {
  %2 = alloca ptr, align 8
  store ptr %0, ptr %2, align 8, !tbaa !223
  %3 = load ptr, ptr %2, align 8
  call void @_ZN6icu_777UObjectC2Ev(ptr noundef nonnull align 8 dereferenceable(8) %3) #14
  store ptr getelementptr inbounds inrange(-16, 88) ({ [13 x ptr] }, ptr @_ZTVN6icu_7711ReplaceableE, i32 0, i32 0, i32 2), ptr %3, align 8, !tbaa !10
  ret void
}

; Function Attrs: inlinehint mustprogress uwtable
define linkonce_odr void @_ZN6icu_7713UnicodeStringC2Ev(ptr noundef nonnull align 8 dereferenceable(64) %0) unnamed_addr #6 comdat align 2 {
  %2 = alloca ptr, align 8
  store ptr %0, ptr %2, align 8, !tbaa !76
  %3 = load ptr, ptr %2, align 8
  call void @_ZN6icu_7711ReplaceableC2Ev(ptr noundef nonnull align 8 dereferenceable(8) %3)
  store ptr getelementptr inbounds inrange(-16, 88) ({ [13 x ptr] }, ptr @_ZTVN6icu_7713UnicodeStringE, i32 0, i32 0, i32 2), ptr %3, align 8, !tbaa !10
  %4 = getelementptr inbounds nuw %"class.icu_77::UnicodeString", ptr %3, i32 0, i32 1
  %5 = getelementptr inbounds nuw %struct.anon, ptr %4, i32 0, i32 0
  store i16 2, ptr %5, align 8, !tbaa !39
  ret void
}

; Function Attrs: mustprogress uwtable
define void @_ZN6icu_7721RuleBasedNumberFormatC2ERKNS_13UnicodeStringER11UParseErrorR10UErrorCode(ptr noundef nonnull align 8 dereferenceable(456) %0, ptr noundef nonnull align 8 dereferenceable(64) %1, ptr noundef nonnull align 4 dereferenceable(72) %2, ptr noundef nonnull align 4 dereferenceable(4) %3) unnamed_addr #2 align 2 personality ptr @__gxx_personality_v0 {
  %5 = alloca ptr, align 8
  %6 = alloca ptr, align 8
  %7 = alloca ptr, align 8
  %8 = alloca ptr, align 8
  %9 = alloca ptr, align 8
  %10 = alloca i32, align 4
  store ptr %0, ptr %5, align 8, !tbaa !3
  store ptr %1, ptr %6, align 8, !tbaa !76
  store ptr %2, ptr %7, align 8, !tbaa !78
  store ptr %3, ptr %8, align 8, !tbaa !51
  %11 = load ptr, ptr %5, align 8
  call void @_ZN6icu_7712NumberFormatC2Ev(ptr noundef nonnull align 8 dereferenceable(60) %11)
  store ptr getelementptr inbounds inrange(-16, 408) ({ [53 x ptr] }, ptr @_ZTVN6icu_7721RuleBasedNumberFormatE, i32 0, i32 0, i32 2), ptr %11, align 8, !tbaa !10
  %12 = getelementptr inbounds nuw %"class.icu_77::RuleBasedNumberFormat", ptr %11, i32 0, i32 1
  store ptr null, ptr %12, align 8, !tbaa !87
  %13 = getelementptr inbounds nuw %"class.icu_77::RuleBasedNumberFormat", ptr %11, i32 0, i32 2
  store ptr null, ptr %13, align 8, !tbaa !104
  %14 = getelementptr inbounds nuw %"class.icu_77::RuleBasedNumberFormat", ptr %11, i32 0, i32 3
  store i32 0, ptr %14, align 8, !tbaa !105
  %15 = getelementptr inbounds nuw %"class.icu_77::RuleBasedNumberFormat", ptr %11, i32 0, i32 4
  store ptr null, ptr %15, align 8, !tbaa !106
  %16 = getelementptr inbounds nuw %"class.icu_77::RuleBasedNumberFormat", ptr %11, i32 0, i32 5
  %17 = invoke noundef nonnull align 8 dereferenceable(217) ptr @_ZN6icu_776Locale10getDefaultEv()
          to label %18 unwind label %38

18:                                               ; preds = %4
  invoke void @_ZN6icu_776LocaleC1ERKS0_(ptr noundef nonnull align 8 dereferenceable(217) %16, ptr noundef nonnull align 8 dereferenceable(217) %17)
          to label %19 unwind label %38

19:                                               ; preds = %18
  %20 = getelementptr inbounds nuw %"class.icu_77::RuleBasedNumberFormat", ptr %11, i32 0, i32 6
  store ptr null, ptr %20, align 8, !tbaa !107
  %21 = getelementptr inbounds nuw %"class.icu_77::RuleBasedNumberFormat", ptr %11, i32 0, i32 7
  store ptr null, ptr %21, align 8, !tbaa !108
  %22 = getelementptr inbounds nuw %"class.icu_77::RuleBasedNumberFormat", ptr %11, i32 0, i32 8
  store ptr null, ptr %22, align 8, !tbaa !109
  %23 = getelementptr inbounds nuw %"class.icu_77::RuleBasedNumberFormat", ptr %11, i32 0, i32 9
  store ptr null, ptr %23, align 8, !tbaa !110
  %24 = getelementptr inbounds nuw %"class.icu_77::RuleBasedNumberFormat", ptr %11, i32 0, i32 10
  store i32 7, ptr %24, align 8, !tbaa !111
  %25 = getelementptr inbounds nuw %"class.icu_77::RuleBasedNumberFormat", ptr %11, i32 0, i32 11
  store i8 0, ptr %25, align 4, !tbaa !112
  %26 = getelementptr inbounds nuw %"class.icu_77::RuleBasedNumberFormat", ptr %11, i32 0, i32 12
  store ptr null, ptr %26, align 8, !tbaa !113
  %27 = getelementptr inbounds nuw %"class.icu_77::RuleBasedNumberFormat", ptr %11, i32 0, i32 13
  store ptr null, ptr %27, align 8, !tbaa !114
  %28 = getelementptr inbounds nuw %"class.icu_77::RuleBasedNumberFormat", ptr %11, i32 0, i32 14
  invoke void @_ZN6icu_7713UnicodeStringC2Ev(ptr noundef nonnull align 8 dereferenceable(64) %28)
          to label %29 unwind label %42

29:                                               ; preds = %19
  %30 = getelementptr inbounds nuw %"class.icu_77::RuleBasedNumberFormat", ptr %11, i32 0, i32 15
  store i8 0, ptr %30, align 8, !tbaa !115
  %31 = getelementptr inbounds nuw %"class.icu_77::RuleBasedNumberFormat", ptr %11, i32 0, i32 16
  store i8 0, ptr %31, align 1, !tbaa !116
  %32 = getelementptr inbounds nuw %"class.icu_77::RuleBasedNumberFormat", ptr %11, i32 0, i32 17
  store i8 0, ptr %32, align 2, !tbaa !117
  %33 = getelementptr inbounds nuw %"class.icu_77::RuleBasedNumberFormat", ptr %11, i32 0, i32 18
  store ptr null, ptr %33, align 8, !tbaa !118
  %34 = load ptr, ptr %6, align 8, !tbaa !76
  %35 = load ptr, ptr %7, align 8, !tbaa !78
  %36 = load ptr, ptr %8, align 8, !tbaa !51
  invoke void @_ZN6icu_7721RuleBasedNumberFormat4initERKNS_13UnicodeStringEPNS_16LocalizationInfoER11UParseErrorR10UErrorCode(ptr noundef nonnull align 8 dereferenceable(456) %11, ptr noundef nonnull align 8 dereferenceable(64) %34, ptr noundef null, ptr noundef nonnull align 4 dereferenceable(72) %35, ptr noundef nonnull align 4 dereferenceable(4) %36)
          to label %37 unwind label %46

37:                                               ; preds = %29
  ret void

38:                                               ; preds = %18, %4
  %39 = landingpad { ptr, i32 }
          cleanup
  %40 = extractvalue { ptr, i32 } %39, 0
  store ptr %40, ptr %9, align 8
  %41 = extractvalue { ptr, i32 } %39, 1
  store i32 %41, ptr %10, align 4
  br label %51

42:                                               ; preds = %19
  %43 = landingpad { ptr, i32 }
          cleanup
  %44 = extractvalue { ptr, i32 } %43, 0
  store ptr %44, ptr %9, align 8
  %45 = extractvalue { ptr, i32 } %43, 1
  store i32 %45, ptr %10, align 4
  br label %50

46:                                               ; preds = %29
  %47 = landingpad { ptr, i32 }
          cleanup
  %48 = extractvalue { ptr, i32 } %47, 0
  store ptr %48, ptr %9, align 8
  %49 = extractvalue { ptr, i32 } %47, 1
  store i32 %49, ptr %10, align 4
  call void @_ZN6icu_7713UnicodeStringD1Ev(ptr noundef nonnull align 8 dereferenceable(64) %28) #14
  br label %50

50:                                               ; preds = %46, %42
  call void @_ZN6icu_776LocaleD1Ev(ptr noundef nonnull align 8 dereferenceable(217) %16) #14
  br label %51

51:                                               ; preds = %50, %38
  call void @_ZN6icu_7712NumberFormatD2Ev(ptr noundef nonnull align 8 dereferenceable(60) %11) #14
  br label %52

52:                                               ; preds = %51
  %53 = load ptr, ptr %9, align 8
  %54 = load i32, ptr %10, align 4
  %55 = insertvalue { ptr, i32 } poison, ptr %53, 0
  %56 = insertvalue { ptr, i32 } %55, i32 %54, 1
  resume { ptr, i32 } %56
}