; Function Attrs: mustprogress uwtable
define void @_ZN6icu_7721RuleBasedNumberFormatC2ERKNS_13UnicodeStringER11UParseErrorR10UErrorCode(ptr noundef nonnull align 8 dereferenceable(456) %0, ptr noundef nonnull align 8 dereferenceable(64) %1, ptr noundef nonnull writeonly align 4 captures(none) dereferenceable(72) %2, ptr noundef nonnull align 4 dereferenceable(4) %3) unnamed_addr #3 align 2 personality ptr @__gxx_personality_v0 {
  tail call void @_ZN6icu_7712NumberFormatC2Ev(ptr noundef nonnull align 8 dereferenceable(60) %0)
  store ptr getelementptr inbounds nuw inrange(-16, 408) (i8, ptr @_ZTVN6icu_7721RuleBasedNumberFormatE, i64 16), ptr %0, align 8, !tbaa !3
  %5 = getelementptr inbounds nuw i8, ptr %0, i64 64
  %6 = getelementptr inbounds nuw i8, ptr %0, i64 88
  store ptr null, ptr %6, align 8, !tbaa !64
  %7 = getelementptr inbounds nuw i8, ptr %0, i64 96
  tail call void @llvm.memset.p0.i64(ptr noundef nonnull align 8 dereferenceable(20) %5, i8 0, i64 20, i1 false)
  %8 = invoke noundef nonnull align 8 dereferenceable(217) ptr @_ZN6icu_776Locale10getDefaultEv()
          to label %9 unwind label %22

9:                                                ; preds = %4
  invoke void @_ZN6icu_776LocaleC1ERKS0_(ptr noundef nonnull align 8 dereferenceable(217) %7, ptr noundef nonnull align 8 dereferenceable(217) %8)
          to label %10 unwind label %22

10:                                               ; preds = %9
  %11 = getelementptr inbounds nuw i8, ptr %0, i64 320
  %12 = getelementptr inbounds nuw i8, ptr %0, i64 352
  tail call void @llvm.memset.p0.i64(ptr noundef nonnull align 8 dereferenceable(32) %11, i8 0, i64 32, i1 false)
  store i32 7, ptr %12, align 8, !tbaa !84
  %13 = getelementptr inbounds nuw i8, ptr %0, i64 356
  store i8 0, ptr %13, align 4, !tbaa !85
  %14 = getelementptr inbounds nuw i8, ptr %0, i64 360
  %15 = getelementptr inbounds nuw i8, ptr %0, i64 376
  tail call void @llvm.memset.p0.i64(ptr noundef nonnull align 8 dereferenceable(16) %14, i8 0, i64 16, i1 false)
  store ptr getelementptr inbounds nuw inrange(-16, 88) (i8, ptr @_ZTVN6icu_7713UnicodeStringE, i64 16), ptr %15, align 8, !tbaa !3
  %16 = getelementptr inbounds nuw i8, ptr %0, i64 384
  store i16 2, ptr %16, align 8, !tbaa !55
  %17 = getelementptr inbounds nuw i8, ptr %0, i64 440
  store i8 0, ptr %17, align 8, !tbaa !86
  %18 = getelementptr inbounds nuw i8, ptr %0, i64 441
  store i8 0, ptr %18, align 1, !tbaa !87
  %19 = getelementptr inbounds nuw i8, ptr %0, i64 442
  store i8 0, ptr %19, align 2, !tbaa !88
  %20 = getelementptr inbounds nuw i8, ptr %0, i64 448
  store ptr null, ptr %20, align 8, !tbaa !89
  invoke void @_ZN6icu_7721RuleBasedNumberFormat4initERKNS_13UnicodeStringEPNS_16LocalizationInfoER11UParseErrorR10UErrorCode(ptr noundef nonnull align 8 dereferenceable(456) %0, ptr noundef nonnull align 8 dereferenceable(64) %1, ptr noundef null, ptr noundef nonnull align 4 dereferenceable(72) %2, ptr noundef nonnull align 4 dereferenceable(4) %3)
          to label %21 unwind label %24

21:                                               ; preds = %10
  ret void

22:                                               ; preds = %9, %4
  %23 = landingpad { ptr, i32 }
          cleanup
  br label %26

24:                                               ; preds = %10
  %25 = landingpad { ptr, i32 }
          cleanup
  tail call void @_ZN6icu_7713UnicodeStringD1Ev(ptr noundef nonnull align 8 dereferenceable(64) %15) #21
  tail call void @_ZN6icu_776LocaleD1Ev(ptr noundef nonnull align 8 dereferenceable(217) %7) #21
  br label %26

26:                                               ; preds = %24, %22
  %.pn.pn = phi { ptr, i32 } [ %25, %24 ], [ %23, %22 ]
  tail call void @_ZN6icu_7712NumberFormatD2Ev(ptr noundef nonnull align 8 dereferenceable(60) %0) #21
  resume { ptr, i32 } %.pn.pn
}